; ModuleID = '62/1808.cpp'
source_filename = "62/1808.cpp"
target datalayout = "e-m:e-p270:32:32-p271:32:32-p272:64:64-i64:64-f80:128-n8:16:32:64-S128"
target triple = "x86_64-pc-linux-gnu"

%"class.std::ios_base::Init" = type { i8 }
%"class.std::basic_istream" = type { i32 (...)**, i64, %"class.std::basic_ios" }
%"class.std::basic_ios" = type { %"class.std::ios_base", %"class.std::basic_ostream"*, i8, i8, %"class.std::basic_streambuf"*, %"class.std::ctype"*, %"class.std::num_put"*, %"class.std::num_get"* }
%"class.std::ios_base" = type { i32 (...)**, i64, i64, i32, i32, i32, %"struct.std::ios_base::_Callback_list"*, %"struct.std::ios_base::_Words", [8 x %"struct.std::ios_base::_Words"], i32, %"struct.std::ios_base::_Words"*, %"class.std::locale" }
%"struct.std::ios_base::_Callback_list" = type { %"struct.std::ios_base::_Callback_list"*, void (i32, %"class.std::ios_base"*, i32)*, i32, i32 }
%"struct.std::ios_base::_Words" = type { i8*, i64 }
%"class.std::locale" = type { %"class.std::locale::_Impl"* }
%"class.std::locale::_Impl" = type { i32, %"class.std::locale::facet"**, i64, %"class.std::locale::facet"**, i8** }
%"class.std::locale::facet" = type <{ i32 (...)**, i32, [4 x i8] }>
%"class.std::basic_ostream" = type { i32 (...)**, %"class.std::basic_ios" }
%"class.std::basic_streambuf" = type { i32 (...)**, i8*, i8*, i8*, i8*, i8*, i8*, %"class.std::locale" }
%"class.std::ctype" = type <{ %"class.std::locale::facet.base", [4 x i8], %struct.__locale_struct*, i8, [7 x i8], i32*, i32*, i16*, i8, [256 x i8], [256 x i8], i8, [6 x i8] }>
%"class.std::locale::facet.base" = type <{ i32 (...)**, i32 }>
%struct.__locale_struct = type { [13 x %struct.__locale_data*], i16*, i32*, i32*, [13 x i8*] }
%struct.__locale_data = type opaque
%"class.std::num_put" = type { %"class.std::locale::facet.base", [4 x i8] }
%"class.std::num_get" = type { %"class.std::locale::facet.base", [4 x i8] }

@_ZStL8__ioinit = internal global %"class.std::ios_base::Init" zeroinitializer, align 1
@__dso_handle = external hidden global i8
@_ZSt3cin = external dso_local global %"class.std::basic_istream", align 8
@_ZSt4cout = external dso_local global %"class.std::basic_ostream", align 8
@llvm.global_ctors = appending global [1 x { i32, void ()*, i8* }] [{ i32, void ()*, i8* } { i32 65535, void ()* @_GLOBAL__sub_I_1808.cpp, i8* null }]

; Function Attrs: noinline uwtable
define internal void @__cxx_global_var_init() #0 section ".text.startup" {
  call void @_ZNSt8ios_base4InitC1Ev(%"class.std::ios_base::Init"* @_ZStL8__ioinit)
  %1 = call i32 @__cxa_atexit(void (i8*)* bitcast (void (%"class.std::ios_base::Init"*)* @_ZNSt8ios_base4InitD1Ev to void (i8*)*), i8* getelementptr inbounds (%"class.std::ios_base::Init", %"class.std::ios_base::Init"* @_ZStL8__ioinit, i32 0, i32 0), i8* @__dso_handle) #3
  ret void
}

declare dso_local void @_ZNSt8ios_base4InitC1Ev(%"class.std::ios_base::Init"*) unnamed_addr #1

; Function Attrs: nounwind
declare dso_local void @_ZNSt8ios_base4InitD1Ev(%"class.std::ios_base::Init"*) unnamed_addr #2

; Function Attrs: nounwind
declare dso_local i32 @__cxa_atexit(void (i8*)*, i8*, i8*) #3

; Function Attrs: noinline norecurse uwtable
define dso_local i32 @main() #4 {
  %1 = alloca i32, align 4
  %2 = alloca [10000 x i8], align 16
  %3 = alloca [10000 x i8], align 16
  %4 = alloca i8*, align 8
  %5 = alloca i8*, align 8
  %6 = alloca i32, align 4
  %7 = alloca i32, align 4
  %8 = alloca i32, align 4
  store i32 0, i32* %1, align 4
  %9 = bitcast [10000 x i8]* %3 to i8*
  call void @llvm.memset.p0i8.i64(i8* align 16 %9, i8 0, i64 10000, i1 false)
  %10 = bitcast i8* %9 to <{ i8, [9999 x i8] }>*
  %11 = getelementptr inbounds <{ i8, [9999 x i8] }>, <{ i8, [9999 x i8] }>* %10, i32 0, i32 0
  store i8 48, i8* %11, align 16
  store i32 0, i32* %8, align 4
  %12 = getelementptr inbounds [10000 x i8], [10000 x i8]* %2, i64 0, i64 0
  %13 = call dereferenceable(280) %"class.std::basic_istream"* @_ZNSi7getlineEPcl(%"class.std::basic_istream"* @_ZSt3cin, i8* %12, i64 10000)
  %14 = getelementptr inbounds [10000 x i8], [10000 x i8]* %2, i64 0, i64 0
  %15 = call i64 @strlen(i8* %14) #7
  %16 = trunc i64 %15 to i32
  store i32 %16, i32* %6, align 4
  store i32 0, i32* %7, align 4
  br label %17

17:                                               ; preds = %56, %0
  %18 = load i32, i32* %7, align 4
  %19 = load i32, i32* %6, align 4
  %20 = icmp slt i32 %18, %19
  br i1 %20, label %21, label %59

21:                                               ; preds = %17
  %22 = load i32, i32* %7, align 4
  %23 = sext i32 %22 to i64
  %24 = getelementptr inbounds [10000 x i8], [10000 x i8]* %2, i64 0, i64 %23
  %25 = load i8, i8* %24, align 1
  %26 = sext i8 %25 to i32
  %27 = icmp ne i32 %26, 32
  br i1 %27, label %43, label %28

28:                                               ; preds = %21
  %29 = load i32, i32* %7, align 4
  %30 = sext i32 %29 to i64
  %31 = getelementptr inbounds [10000 x i8], [10000 x i8]* %2, i64 0, i64 %30
  %32 = load i8, i8* %31, align 1
  %33 = sext i8 %32 to i32
  %34 = icmp eq i32 %33, 32
  br i1 %34, label %35, label %55

35:                                               ; preds = %28
  %36 = load i32, i32* %7, align 4
  %37 = add nsw i32 %36, 1
  %38 = sext i32 %37 to i64
  %39 = getelementptr inbounds [10000 x i8], [10000 x i8]* %2, i64 0, i64 %38
  %40 = load i8, i8* %39, align 1
  %41 = sext i8 %40 to i32
  %42 = icmp ne i32 %41, 32
  br i1 %42, label %43, label %55

43:                                               ; preds = %35, %21
  %44 = load i32, i32* %7, align 4
  %45 = sext i32 %44 to i64
  %46 = getelementptr inbounds [10000 x i8], [10000 x i8]* %2, i64 0, i64 %45
  store i8* %46, i8** %4, align 8
  %47 = load i8*, i8** %4, align 8
  %48 = load i8, i8* %47, align 1
  %49 = load i32, i32* %8, align 4
  %50 = add nsw i32 %49, 1
  store i32 %50, i32* %8, align 4
  %51 = sext i32 %49 to i64
  %52 = getelementptr inbounds [10000 x i8], [10000 x i8]* %3, i64 0, i64 %51
  store i8 %48, i8* %52, align 1
  %53 = load i8*, i8** %4, align 8
  %54 = getelementptr inbounds i8, i8* %53, i32 1
  store i8* %54, i8** %4, align 8
  br label %55

55:                                               ; preds = %43, %35, %28
  br label %56

56:                                               ; preds = %55
  %57 = load i32, i32* %7, align 4
  %58 = add nsw i32 %57, 1
  store i32 %58, i32* %7, align 4
  br label %17

59:                                               ; preds = %17
  %60 = getelementptr inbounds [10000 x i8], [10000 x i8]* %3, i64 0, i64 0
  %61 = call i64 @strlen(i8* %60) #7
  %62 = trunc i64 %61 to i32
  store i32 %62, i32* %6, align 4
  store i32 0, i32* %7, align 4
  br label %63

63:                                               ; preds = %73, %59
  %64 = load i32, i32* %7, align 4
  %65 = load i32, i32* %6, align 4
  %66 = icmp slt i32 %64, %65
  br i1 %66, label %67, label %76

67:                                               ; preds = %63
  %68 = load i32, i32* %7, align 4
  %69 = sext i32 %68 to i64
  %70 = getelementptr inbounds [10000 x i8], [10000 x i8]* %3, i64 0, i64 %69
  %71 = load i8, i8* %70, align 1
  %72 = call dereferenceable(272) %"class.std::basic_ostream"* @_ZStlsISt11char_traitsIcEERSt13basic_ostreamIcT_ES5_c(%"class.std::basic_ostream"* dereferenceable(272) @_ZSt4cout, i8 signext %71)
  br label %73

73:                                               ; preds = %67
  %74 = load i32, i32* %7, align 4
  %75 = add nsw i32 %74, 1
  store i32 %75, i32* %7, align 4
  br label %63

76:                                               ; preds = %63
  ret i32 0
}

; Function Attrs: argmemonly nounwind willreturn
declare void @llvm.memset.p0i8.i64(i8* nocapture writeonly, i8, i64, i1 immarg) #5

declare dso_local dereferenceable(280) %"class.std::basic_istream"* @_ZNSi7getlineEPcl(%"class.std::basic_istream"*, i8*, i64) #1

; Function Attrs: nounwind readonly
declare dso_local i64 @strlen(i8*) #6

declare dso_local dereferenceable(272) %"class.std::basic_ostream"* @_ZStlsISt11char_traitsIcEERSt13basic_ostreamIcT_ES5_c(%"class.std::basic_ostream"* dereferenceable(272), i8 signext) #1

; Function Attrs: noinline uwtable
define internal void @_GLOBAL__sub_I_1808.cpp() #0 section ".text.startup" {
  call void @__cxx_global_var_init()
  ret void
}


!llvm.module.flags = !{!0}
!llvm.ident = !{!1}

!0 = !{i32 1, !"wchar_size", i32 4}
!1 = !{!"clang version 10.0.0-4ubuntu1 "}
